; Function Attrs: mustprogress null_pointer_is_valid sspstrong uwtable
define void @_ZN8UatFrame33on_uatTreeView_currentItemChangedERK11QModelIndexS2_(ptr noundef readonly align 8 captures(none) dereferenceable_or_null(72) %0, ptr noundef align 8 dereferenceable(24) %1, ptr noundef align 8 dereferenceable(24) %2) local_unnamed_addr #0 align 2 {
  %4 = load i32, ptr %1, align 8
  %5 = icmp sgt i32 %4, -1
  %6 = getelementptr inbounds nuw i8, ptr %1, i64 4
  %7 = load i32, ptr %6, align 4
  %8 = icmp sgt i32 %7, -1
  %or.cond = select i1 %5, i1 %8, i1 false
  %9 = getelementptr inbounds nuw i8, ptr %1, i64 16
  %10 = load ptr, ptr %9, align 8
  %11 = icmp ne ptr %10, null
  %or.cond8 = select i1 %or.cond, i1 %11, i1 false
  %12 = getelementptr inbounds nuw i8, ptr %0, i64 40
  %13 = load ptr, ptr %12, align 8
  %14 = getelementptr inbounds nuw i8, ptr %13, i64 72
  %15 = load ptr, ptr %14, align 8
  tail call void @_ZN7QWidget10setEnabledEb(ptr noundef align 8 dereferenceable_or_null(40) %15, i1 noundef zeroext %or.cond8)
  tail call void @_ZN8UatFrame17checkForErrorHintERK11QModelIndexS2_(ptr noundef align 8 dereferenceable_or_null(72) %0, ptr noundef align 8 dereferenceable(24) %1, ptr noundef align 8 dereferenceable(24) %2)
  ret void
}